; Function Attrs: nounwind uwtable
define ptr @l_Lean_Core_wrapAsyncAsSnapshot___rarg___lambda__3(ptr noundef %0, ptr noundef %1, ptr noundef %2, ptr noundef %3, ptr noundef %4, ptr noundef %5) #1 {
  %7 = getelementptr inbounds nuw i8, ptr %3, i64 24
  %8 = load ptr, ptr %7, align 8, !tbaa !9
  %9 = ptrtoint ptr %8 to i64
  %10 = and i64 %9, 1
  %.not = icmp eq i64 %10, 0
  br i1 %.not, label %11, label %lean_inc.exit

11:                                               ; preds = %6
  %.val.i = load i32, ptr %8, align 4, !tbaa !4
  %12 = icmp sgt i32 %.val.i, 0
  br i1 %12, label %13, label %15, !prof !11

13:                                               ; preds = %11
  %14 = add nuw i32 %.val.i, 1
  store i32 %14, ptr %8, align 4, !tbaa !4
  br label %lean_inc.exit

15:                                               ; preds = %11
  %.not.i16 = icmp eq i32 %.val.i, 0
  br i1 %.not.i16, label %lean_inc.exit, label %16

16:                                               ; preds = %15
  tail call void @lean_inc_ref_cold(ptr noundef nonnull %8) #7
  br label %lean_inc.exit

lean_inc.exit:                                    ; preds = %16, %15, %13, %6
  tail call void @lean_inc_heartbeat() #7
  %17 = tail call noalias ptr @mi_malloc_small(i64 noundef 48) #7
  %18 = icmp eq ptr %17, null
  br i1 %18, label %19, label %lean_alloc_closure.exit

19:                                               ; preds = %lean_inc.exit
  tail call void @lean_internal_panic_out_of_memory() #8
  unreachable

lean_alloc_closure.exit:                          ; preds = %lean_inc.exit
  %20 = getelementptr inbounds nuw i8, ptr %17, i64 4
  store i32 1, ptr %17, align 4, !tbaa !4
  store i32 -184549328, ptr %20, align 4
  %21 = getelementptr inbounds nuw i8, ptr %17, i64 8
  store ptr @l_Lean_Core_wrapAsyncAsSnapshot___rarg___lambda__2, ptr %21, align 8, !tbaa !9
  %22 = getelementptr inbounds nuw i8, ptr %17, i64 16
  store i16 6, ptr %22, align 8, !tbaa !15
  %23 = getelementptr inbounds nuw i8, ptr %17, i64 18
  store i16 3, ptr %23, align 2, !tbaa !15
  %24 = getelementptr inbounds nuw i8, ptr %17, i64 24
  store ptr %0, ptr %24, align 8, !tbaa !9
  %25 = getelementptr inbounds nuw i8, ptr %17, i64 32
  store ptr %1, ptr %25, align 8, !tbaa !9
  %26 = getelementptr inbounds nuw i8, ptr %17, i64 40
  store ptr %2, ptr %26, align 8, !tbaa !9
  %27 = load ptr, ptr @l_Lean_Core_wrapAsyncAsSnapshot___rarg___lambda__3___closed__1, align 8, !tbaa !9
  %28 = tail call zeroext i8 @l_Lean_Option_get___at___private_Lean_Util_Profile_0__Lean_get__profiler___spec__1(ptr noundef %8, ptr noundef %27) #7
  br i1 %.not, label %29, label %lean_dec.exit

29:                                               ; preds = %lean_alloc_closure.exit
  %30 = load i32, ptr %8, align 4, !tbaa !4
  %31 = icmp sgt i32 %30, 1
  br i1 %31, label %32, label %34, !prof !11

32:                                               ; preds = %29
  %33 = add nsw i32 %30, -1
  store i32 %33, ptr %8, align 4, !tbaa !4
  br label %lean_dec.exit

34:                                               ; preds = %29
  %.not.i = icmp eq i32 %30, 0
  br i1 %.not.i, label %lean_dec.exit, label %35

35:                                               ; preds = %34
  tail call void @lean_dec_ref_cold(ptr noundef nonnull %8) #7
  br label %lean_dec.exit

lean_dec.exit:                                    ; preds = %35, %34, %32, %lean_alloc_closure.exit
  %36 = tail call ptr @l_IO_FS_withIsolatedStreams___at_Lean_Core_wrapAsyncAsSnapshot___spec__15(ptr noundef nonnull %17, i8 noundef zeroext %28, ptr noundef nonnull %3, ptr noundef %4, ptr noundef %5)
  ret ptr %36
}